target datalayout = "e-m:e-p270:32:32-p271:32:32-p272:64:64-i64:64-i128:128-f80:128-n8:16:32:64-S128"
target triple = "x86_64-pc-linux-gnu"

@proto_register_flip.ett = internal global [4 x ptr] [ptr @ett_flip, ptr @ett_flip_basic, ptr @ett_flip_chksum, ptr @ett_flip_payload], align 16
@.str.23 = private unnamed_addr constant [9 x i8] c"NSN FLIP\00", align 1
@.str.24 = private unnamed_addr constant [5 x i8] c"FLIP\00", align 1
@.str.25 = private unnamed_addr constant [5 x i8] c"flip\00", align 1
@proto_flip = internal global i32 0, align 4
@flip_handle = internal global ptr null, align 8
@.str.26 = private unnamed_addr constant [14 x i8] c"decoding_mode\00", align 1
@.str.27 = private unnamed_addr constant [23 x i8] c"heur_enabled_protocols\00", align 1
@.str.28 = private unnamed_addr constant [16 x i8] c"heur_decode_rtp\00", align 1
@.str.29 = private unnamed_addr constant [17 x i8] c"heur_decode_rtcp\00", align 1
@.str.30 = private unnamed_addr constant [16 x i8] c"forced_protocol\00", align 1
@.str.31 = private unnamed_addr constant [14 x i8] c"forced_decode\00", align 1
@.str.32 = private unnamed_addr constant [13 x i8] c"flip.payload\00", align 1
@.str.33 = private unnamed_addr constant [13 x i8] c"FLIP payload\00", align 1
@subdissector_table = internal global ptr null, align 8

; Function Attrs: null_pointer_is_valid sspstrong uwtable
define hidden void @proto_register_flip() #0 {
  %1 = alloca ptr, align 8
  call void @llvm.lifetime.start.p0(i64 8, ptr %1) #4
  %2 = call i32 @proto_register_protocol(ptr noundef @.str.23, ptr noundef @.str.24, ptr noundef @.str.25)
  store i32 %2, ptr @proto_flip, align 4
  %3 = load i32, ptr @proto_flip, align 4
  %4 = call ptr @register_dissector(ptr noundef @.str.25, ptr noundef @dissect_flip, i32 noundef %3)
  store ptr %4, ptr @flip_handle, align 8
  %5 = load i32, ptr @proto_flip, align 4
  call void @proto_register_field_array(i32 noundef %5, ptr noundef @proto_register_flip.hf, i32 noundef 9)
  call void @proto_register_subtree_array(ptr noundef @proto_register_flip.ett, i32 noundef 4)
  %6 = load i32, ptr @proto_flip, align 4
  %7 = call ptr @prefs_register_protocol_obsolete(i32 noundef %6)
  store ptr %7, ptr %1, align 8
  %8 = load ptr, ptr %1, align 8
  call void @prefs_register_obsolete_preference(ptr noundef %8, ptr noundef @.str.26)
  %9 = load ptr, ptr %1, align 8
  call void @prefs_register_obsolete_preference(ptr noundef %9, ptr noundef @.str.27)
  %10 = load ptr, ptr %1, align 8
  call void @prefs_register_obsolete_preference(ptr noundef %10, ptr noundef @.str.28)
  %11 = load ptr, ptr %1, align 8
  call void @prefs_register_obsolete_preference(ptr noundef %11, ptr noundef @.str.29)
  %12 = load ptr, ptr %1, align 8
  call void @prefs_register_obsolete_preference(ptr noundef %12, ptr noundef @.str.30)
  %13 = load ptr, ptr %1, align 8
  call void @prefs_register_obsolete_preference(ptr noundef %13, ptr noundef @.str.31)
  %14 = load i32, ptr @proto_flip, align 4
  %15 = call ptr @register_decode_as_next_proto(i32 noundef %14, ptr noundef @.str.32, ptr noundef @.str.33, ptr noundef @flip_prompt)
  store ptr %15, ptr @subdissector_table, align 8
  call void @llvm.lifetime.end.p0(i64 8, ptr %1) #4
  ret void
}