; Function Attrs: null_pointer_is_valid sspstrong uwtable
define hidden void @proto_register_flip() local_unnamed_addr #0 {
  %1 = tail call i32 @proto_register_protocol(ptr noundef nonnull @.str.23, ptr noundef nonnull @.str.24, ptr noundef nonnull @.str.25)
  store i32 %1, ptr @proto_flip, align 4
  %2 = tail call ptr @register_dissector(ptr noundef nonnull @.str.25, ptr noundef nonnull @dissect_flip, i32 noundef %1)
  store ptr %2, ptr @flip_handle, align 8
  %3 = load i32, ptr @proto_flip, align 4
  tail call void @proto_register_field_array(i32 noundef %3, ptr noundef nonnull @proto_register_flip.hf, i32 noundef 9)
  tail call void @proto_register_subtree_array(ptr noundef nonnull @proto_register_flip.ett, i32 noundef 4)
  %4 = load i32, ptr @proto_flip, align 4
  %5 = tail call ptr @prefs_register_protocol_obsolete(i32 noundef %4)
  tail call void @prefs_register_obsolete_preference(ptr noundef %5, ptr noundef nonnull @.str.26)
  tail call void @prefs_register_obsolete_preference(ptr noundef %5, ptr noundef nonnull @.str.27)
  tail call void @prefs_register_obsolete_preference(ptr noundef %5, ptr noundef nonnull @.str.28)
  tail call void @prefs_register_obsolete_preference(ptr noundef %5, ptr noundef nonnull @.str.29)
  tail call void @prefs_register_obsolete_preference(ptr noundef %5, ptr noundef nonnull @.str.30)
  tail call void @prefs_register_obsolete_preference(ptr noundef %5, ptr noundef nonnull @.str.31)
  %6 = load i32, ptr @proto_flip, align 4
  %7 = tail call ptr @register_decode_as_next_proto(i32 noundef %6, ptr noundef nonnull @.str.32, ptr noundef nonnull @.str.33, ptr noundef nonnull @flip_prompt)
  store ptr %7, ptr @subdissector_table, align 8
  ret void
}